#include <math.h>
#include <stdio.h>
#include <stdlib.h>
#include <string.h>

int main(int argc, char* argv[])
{
	double a,b,c,d,e,s,m;
	scanf("%lf\n%lf\n%lf\n%lf\n%lf",&a,&b,&c,&d,&e);
	s=(a+b+c+d)/2;
	m=(s-a)*(s-b)*(s-c)*(s-d)-a*b*c*d*cos(3.1415926*e/360)*cos(3.1415926*e/360);
;
	if(m>=0){
		printf("%.4lf",sqrt(m));
	}
	else {
		printf("Invalid input");
	}
	return 0;
}